target datalayout = "e-m:e-p270:32:32-p271:32:32-p272:64:64-i64:64-i128:128-f80:128-n8:16:32:64-S128"
target triple = "x86_64-pc-linux-gnu"

@ff_rgb24toyv12 = external global ptr, align 8

; Function Attrs: nounwind uwtable
define internal void @bayer_bggr8_to_yv12_copy(ptr noundef %0, i32 noundef %1, ptr noundef %2, ptr noundef %3, ptr noundef %4, i32 noundef %5, i32 noundef %6, ptr noundef %7) #0 {
  %9 = alloca ptr, align 8
  %10 = alloca i32, align 4
  %11 = alloca ptr, align 8
  %12 = alloca ptr, align 8
  %13 = alloca ptr, align 8
  %14 = alloca i32, align 4
  %15 = alloca i32, align 4
  %16 = alloca ptr, align 8
  %17 = alloca [12 x i8], align 1
  %18 = alloca i32, align 4
  %19 = alloca i32, align 4
  store ptr %0, ptr %9, align 8, !tbaa !4
  store i32 %1, ptr %10, align 4, !tbaa !9
  store ptr %2, ptr %11, align 8, !tbaa !4
  store ptr %3, ptr %12, align 8, !tbaa !4
  store ptr %4, ptr %13, align 8, !tbaa !4
  store i32 %5, ptr %14, align 4, !tbaa !9
  store i32 %6, ptr %15, align 4, !tbaa !9
  store ptr %7, ptr %16, align 8, !tbaa !54
  call void @llvm.lifetime.start.p0(i64 12, ptr %17) #11
  call void @llvm.lifetime.start.p0(i64 4, ptr %18) #11
  store i32 6, ptr %18, align 4, !tbaa !9
  call void @llvm.lifetime.start.p0(i64 4, ptr %19) #11
  store i32 0, ptr %19, align 4, !tbaa !9
  br label %20

20:                                               ; preds = %111, %8
  %21 = load i32, ptr %19, align 4, !tbaa !9
  %22 = load i32, ptr %15, align 4, !tbaa !9
  %23 = icmp slt i32 %21, %22
  br i1 %23, label %24, label %114

24:                                               ; preds = %20
  %25 = load ptr, ptr %9, align 8, !tbaa !4
  %26 = load i32, ptr %10, align 4, !tbaa !9
  %27 = mul nsw i32 1, %26
  %28 = add nsw i32 %27, 1
  %29 = sext i32 %28 to i64
  %30 = getelementptr inbounds i8, ptr %25, i64 %29
  %31 = load i8, ptr %30, align 1, !tbaa !67
  %32 = zext i8 %31 to i32
  %33 = ashr i32 %32, 0
  %34 = trunc i32 %33 to i8
  %35 = getelementptr inbounds [12 x i8], ptr %17, i64 0, i64 6
  store i8 %34, ptr %35, align 1, !tbaa !67
  %36 = getelementptr inbounds [12 x i8], ptr %17, i64 0, i64 9
  store i8 %34, ptr %36, align 1, !tbaa !67
  %37 = getelementptr inbounds [12 x i8], ptr %17, i64 0, i64 3
  store i8 %34, ptr %37, align 1, !tbaa !67
  %38 = getelementptr inbounds [12 x i8], ptr %17, i64 0, i64 0
  store i8 %34, ptr %38, align 1, !tbaa !67
  %39 = load ptr, ptr %9, align 8, !tbaa !4
  %40 = load i32, ptr %10, align 4, !tbaa !9
  %41 = mul nsw i32 0, %40
  %42 = add nsw i32 %41, 1
  %43 = sext i32 %42 to i64
  %44 = getelementptr inbounds i8, ptr %39, i64 %43
  %45 = load i8, ptr %44, align 1, !tbaa !67
  %46 = zext i8 %45 to i32
  %47 = ashr i32 %46, 0
  %48 = trunc i32 %47 to i8
  %49 = getelementptr inbounds [12 x i8], ptr %17, i64 0, i64 4
  store i8 %48, ptr %49, align 1, !tbaa !67
  %50 = load ptr, ptr %9, align 8, !tbaa !4
  %51 = load i32, ptr %10, align 4, !tbaa !9
  %52 = mul nsw i32 0, %51
  %53 = add nsw i32 %52, 1
  %54 = sext i32 %53 to i64
  %55 = getelementptr inbounds i8, ptr %50, i64 %54
  %56 = load i8, ptr %55, align 1, !tbaa !67
  %57 = zext i8 %56 to i32
  %58 = load ptr, ptr %9, align 8, !tbaa !4
  %59 = load i32, ptr %10, align 4, !tbaa !9
  %60 = mul nsw i32 1, %59
  %61 = add nsw i32 %60, 0
  %62 = sext i32 %61 to i64
  %63 = getelementptr inbounds i8, ptr %58, i64 %62
  %64 = load i8, ptr %63, align 1, !tbaa !67
  %65 = zext i8 %64 to i32
  %66 = add i32 %57, %65
  %67 = lshr i32 %66, 1
  %68 = trunc i32 %67 to i8
  %69 = getelementptr inbounds [12 x i8], ptr %17, i64 0, i64 10
  store i8 %68, ptr %69, align 1, !tbaa !67
  %70 = getelementptr inbounds [12 x i8], ptr %17, i64 0, i64 1
  store i8 %68, ptr %70, align 1, !tbaa !67
  %71 = load ptr, ptr %9, align 8, !tbaa !4
  %72 = load i32, ptr %10, align 4, !tbaa !9
  %73 = mul nsw i32 1, %72
  %74 = add nsw i32 %73, 0
  %75 = sext i32 %74 to i64
  %76 = getelementptr inbounds i8, ptr %71, i64 %75
  %77 = load i8, ptr %76, align 1, !tbaa !67
  %78 = zext i8 %77 to i32
  %79 = ashr i32 %78, 0
  %80 = trunc i32 %79 to i8
  %81 = getelementptr inbounds [12 x i8], ptr %17, i64 0, i64 7
  store i8 %80, ptr %81, align 1, !tbaa !67
  %82 = load ptr, ptr %9, align 8, !tbaa !4
  %83 = load i32, ptr %10, align 4, !tbaa !9
  %84 = mul nsw i32 0, %83
  %85 = add nsw i32 %84, 0
  %86 = sext i32 %85 to i64
  %87 = getelementptr inbounds i8, ptr %82, i64 %86
  %88 = load i8, ptr %87, align 1, !tbaa !67
  %89 = zext i8 %88 to i32
  %90 = ashr i32 %89, 0
  %91 = trunc i32 %90 to i8
  %92 = getelementptr inbounds [12 x i8], ptr %17, i64 0, i64 8
  store i8 %91, ptr %92, align 1, !tbaa !67
  %93 = getelementptr inbounds [12 x i8], ptr %17, i64 0, i64 5
  store i8 %91, ptr %93, align 1, !tbaa !67
  %94 = getelementptr inbounds [12 x i8], ptr %17, i64 0, i64 2
  store i8 %91, ptr %94, align 1, !tbaa !67
  %95 = getelementptr inbounds [12 x i8], ptr %17, i64 0, i64 11
  store i8 %91, ptr %95, align 1, !tbaa !67
  %96 = load ptr, ptr @ff_rgb24toyv12, align 8, !tbaa !56
  %97 = getelementptr inbounds [12 x i8], ptr %17, i64 0, i64 0
  %98 = load ptr, ptr %11, align 8, !tbaa !4
  %99 = load ptr, ptr %13, align 8, !tbaa !4
  %100 = load ptr, ptr %12, align 8, !tbaa !4
  %101 = load i32, ptr %14, align 4, !tbaa !9
  %102 = load ptr, ptr %16, align 8, !tbaa !54
  call void %96(ptr noundef %97, ptr noundef %98, ptr noundef %99, ptr noundef %100, i32 noundef 2, i32 noundef 2, i32 noundef %101, i32 noundef 0, i32 noundef 6, ptr noundef %102)
  %103 = load ptr, ptr %9, align 8, !tbaa !4
  %104 = getelementptr inbounds i8, ptr %103, i64 2
  store ptr %104, ptr %9, align 8, !tbaa !4
  %105 = load ptr, ptr %11, align 8, !tbaa !4
  %106 = getelementptr inbounds i8, ptr %105, i64 2
  store ptr %106, ptr %11, align 8, !tbaa !4
  %107 = load ptr, ptr %12, align 8, !tbaa !4
  %108 = getelementptr inbounds nuw i8, ptr %107, i32 1
  store ptr %108, ptr %12, align 8, !tbaa !4
  %109 = load ptr, ptr %13, align 8, !tbaa !4
  %110 = getelementptr inbounds nuw i8, ptr %109, i32 1
  store ptr %110, ptr %13, align 8, !tbaa !4
  br label %111

111:                                              ; preds = %24
  %112 = load i32, ptr %19, align 4, !tbaa !9
  %113 = add nsw i32 %112, 2
  store i32 %113, ptr %19, align 4, !tbaa !9
  br label %20, !llvm.loop !292

114:                                              ; preds = %20
  call void @llvm.lifetime.end.p0(i64 4, ptr %19) #11
  call void @llvm.lifetime.end.p0(i64 4, ptr %18) #11
  call void @llvm.lifetime.end.p0(i64 12, ptr %17) #11
  ret void
}